; Function Attrs: nounwind uwtable
define internal fastcc range(i32 -1, 1) i32 @H5S__hyper_free_span(ptr noundef %0) unnamed_addr #0 {
  %2 = load i8, ptr @H5S_init_g, align 1, !tbaa !3, !range !7, !noundef !8
  %3 = trunc nuw i8 %2 to i1
  %4 = load i8, ptr @H5_libterm_g, align 1, !range !7
  %5 = trunc nuw i8 %4 to i1
  %6 = xor i1 %5, true
  %7 = select i1 %3, i1 true, i1 %6
  br i1 %7, label %8, label %20, !prof !9

8:                                                ; preds = %1
  %9 = getelementptr inbounds nuw i8, ptr %0, i64 16
  %10 = load ptr, ptr %9, align 8, !tbaa !92
  %.not = icmp eq ptr %10, null
  br i1 %.not, label %18, label %11

11:                                               ; preds = %8
  %12 = tail call fastcc i32 @H5S__hyper_free_span_info(ptr noundef nonnull %10)
  %13 = icmp slt i32 %12, 0
  br i1 %13, label %14, label %18

14:                                               ; preds = %11
  %15 = load i64, ptr @H5E_DATASPACE_g, align 8, !tbaa !11
  %16 = load i64, ptr @H5E_CANTFREE_g, align 8, !tbaa !11
  %17 = tail call i32 (ptr, ptr, i32, i64, i64, ptr, ...) @H5E_printf_stack(ptr noundef nonnull @.str, ptr noundef nonnull @__func__.H5S__hyper_free_span, i32 noundef 3170, i64 noundef %15, i64 noundef %16, ptr noundef nonnull @.str.13) #14
  br label %20

18:                                               ; preds = %11, %8
  %19 = tail call ptr @H5FL_reg_free(ptr noundef nonnull @H5_H5S_hyper_span_t_reg_free_list, ptr noundef nonnull %0) #14
  br label %20

20:                                               ; preds = %14, %18, %1
  %.0 = phi i32 [ -1, %14 ], [ 0, %18 ], [ 0, %1 ]
  ret i32 %.0
}